; Function Attrs: nounwind sspstrong uwtable
define internal range(i32 -2147483648, 1) i32 @break_f(ptr noundef %0, i32 %1, ptr noundef readonly captures(none) %2) #0 {
  %4 = tail call ptr @blk_bs(ptr noundef %0) #26
  %5 = getelementptr inbounds nuw i8, ptr %2, i64 8
  %6 = load ptr, ptr %5, align 8
  %7 = getelementptr inbounds nuw i8, ptr %2, i64 16
  %8 = load ptr, ptr %7, align 8
  %9 = tail call i32 @bdrv_debug_breakpoint(ptr noundef %4, ptr noundef %6, ptr noundef %8) #26
  %10 = icmp slt i32 %9, 0
  br i1 %10, label %11, label %15

11:                                               ; preds = %3
  %12 = sub i32 0, %9
  %13 = tail call ptr @strerror(i32 noundef %12) #26
  %14 = tail call i32 (i32, ptr, ...) @__printf_chk(i32 noundef 1, ptr noundef nonnull @.str.196, ptr noundef %13) #26
  br label %15

15:                                               ; preds = %3, %11
  %.0 = phi i32 [ %9, %11 ], [ 0, %3 ]
  ret i32 %.0
}